(dp1
Vprovider_id
p2
V2.16.840.1.113883.3.881.1134321
p3
sS'immunizations'
p4
(lp5
VBCG, OPV-O
p6
aVDPT-1,OPV-1,HBV-1
p7
aVDPT-2,OPV-2,HBV-2
p8
aVDPT-3,OPV-3,HBV-3
p9
aVMeasles, Yellow Fever
p10
asS'scribe'
p11
VMe
p12
sS'author_last_name'
p13
VStrong
p14
sS'author_first_name'
p15
VPhil
p16
sS'medications'
p17
(lp18
VFluconazole 100 MG Oral Tablet
p19
aVIvermectin 3 MG Oral Tablet
p20
aVMebendazole 100 MG Chewable Tablet
p21
asS'custodian_name'
p22
VProject Mercy
p23
sS'system'
p24
VUbuntu
p25
sS'languages'
p26
(lp27
(dp28
S'Code'
p29
S'sem-ET'
p30
sS'Name'
p31
S'Guraginya'
p32
sa(dp33
g29
S'orm-ET'
p34
sg31
S'Oromo'
p35
sa(dp36
g29
S'amh-ET'
p37
sg31
S'Amharic'
p38
sa(dp39
g29
S'eng-US'
p40
sg31
S'English'
p41
sa(dp42
S'Code'
p43
S'eng-ET'
p44
sS'Name'
p45
S'English-ET'
p46
sasVprovider_prefix
p47
VDr.
p48
sS'custodian_id'
p49
V1.23.456.78910.11.2
p50
sS'details'
p51
VMedhane Alem School
p52
sVprovider_last_name
p53
VStrong
p54
sVrole
p55
VScribe
p56
sVprovider_name
p57
VFriends of Project Mercy
p58
sVprovider_first_name
p59
VPhil
p60
sS'gps'
p61
Vgps1
p62
sVupdate_basic_settings
p63
VUpdate Basic Settings
p64
sS'end_date'
p65
V20111031
p66
sS'anchor'
p67
S'1triage'
p68
sVcsrfmiddlewaretoken
p69
V5a67dbf30d32c32a709f7985b3f74731
p70
sS'name'
p71
V2011 Medhane Alem
p72
sS'stations'
p73
(lp74
S'intake_station'
p75
aS'triage_station'
p76
aS'clinician_station'
p77
aS'lab_pharmacy_station'
p78
aS'exit_station'
p79
asS'time_zone'
p80
V+0800
p81
sS'start_date'
p82
V20111022
p83
sS'anchor_name'
p84
g68
sS'author_prefix'
p85
VDr.
p86
sVthumb_drive
p87
V/media/SUPER/
p88
s.