(ihr4e.views
Patient
p1
(dp2
S'tribe'
p3
Vyour tribe
p4
sS'weight'
p5
S'14.5'
p6
sS'height'
p7
S'80'
p8
sS'plans_of_care'
p9
(lp10
(dp11
S'#/Action'
p12
S''
sS'Comment'
p13
S'Hi'
p14
sS'#'
S'2'
sS'Sig'
p15
S'gh'
p16
sS'Order'
p17
S'Ivermectin 3 MG Oral Tablet'
p18
sasS'chief_complaint'
p19
S'Smells funny, lice'
p20
sS'home_village'
p21
Vhome village
p22
sS'id'
p23
S'2.16.840.1.113883.3.881.PI13023911'
p24
sS'red_flags'
p25
(dp26
S'ear_problems'
p27
S'value'
p28
sS'pallor'
p29
g28
sS'dehydration'
p30
S'some value'
p31
sS'fever'
p32
S'fever value'
p33
sS'measles'
p34
S'me values'
p35
sS'eye_problems'
p36
g28
sS'cough'
p37
S'cough value'
p38
sS'parasites'
p39
g28
ssS'languages'
p40
VFrench
p41
sS'school_year'
p42
V1
sS'given_name'
p43
VAlex
p44
sVcsrfmiddlewaretoken
p45
V5cf7c55daa17ec3b783cab3ed894798e
p46
sS'supports'
p47
(lp48
(dp49
S'City'
p50
S'Newton'
p51
sS'School'
p52
S'Mason Rice'
p53
sS'Support Name'
p54
S'Mugatu, Jacobin'
p55
sasS'stated_age'
p56
V9y 6m
p57
sS'bmi'
p58
I22
sS'z_score'
p59
S'-1'
p60
sS'estimated_age'
p61
V9y 6m
p62
sS'vaccinations'
p63
(lp64
(dp65
S'BCG, OPV-O'
p66
S'06/2010'
p67
sa(dp68
S'DPT-1,OPV-1,HBV-1'
p69
S'07/2010'
p70
sasS'vitals'
p71
(lp72
(dp73
S'Circumstance'
p74
S'valueC'
p75
sS'Type'
p76
S'P'
sS'Value'
p77
S'20P'
p78
sS'Time'
p79
S'11:04'
p80
sa(dp81
g74
g75
sg76
S'BP'
p82
sg77
S'30BP'
p83
sg79
g80
sasS'assessments'
p84
(lp85
(dp86
S'Name'
p87
S'Diarrhea'
p88
sS'Description'
p89
S'all the time'
p90
sasS'teacher'
p91
VGabre,Johan
p92
sS'family_name'
p93
Vasdfasdf
p94
sS'school'
p95
VUCSC
p96
sS'dob'
p97
S'03/02/1987'
p98
sS'gender'
p99
VMale
p100
sS'present_village'
p101
Vpresent village
p102
sVupdate_demographics
p103
VUpdate Demographics
p104
sS'school_status'
p105
VEnrolled
p106
sb.