(dp1
S'body_tree'
p2
(lp3
sS'is_valid'
p4
I00
sS'namer'
p5
S'noooooooo'
p6
sS'namespaces'
p7
(lp8
Vrawr
p9
asS'date_created'
p10
cdatetime
datetime
p11
(S'\x07\xdc\x04\x06\x17#\x13\x0c\xb0W'
tRp12
sS'header_tree'
p13
(lp14
(dp15
S'tags'
p16
(lp17
(dp18
S'tag-name'
p19
Vtag
p20
sS'tag-parent'
p21
Vroot
p22
sa(dp23
g19
Vrat
p24
sg21
Vroot
p25
sasS'section_title'
p26
S'sect'
p27
sa(dp28
g16
(lp29
(dp30
S'tag-attributes'
p31
Vaaa
p32
sg19
Vzxc
p33
sg21
Vroot
p34
sasg26
S'tesc'
p35
sas.