(ihr4e.views
Patient
p1
(dp2
S'tribe'
p3
S''
sS'weight'
p4
I-1
sS'height'
p5
I-1
sS'plans_of_care'
p6
(lp7
sS'chief_complaint'
p8
S''
sS'home_village'
p9
S''
sS'id'
p10
S'2.16.840.1.113883.3.881.PI13023911'
p11
sS'red_flags'
p12
(dp13
sS'languages'
p14
S''
sS'school_year'
p15
S''
sS'given_name'
p16
S''
sVcsrfmiddlewaretoken
p17
V1b44dca606881f0d52bd75498c0e8ad9
p18
sS'supports'
p19
(lp20
sS'stated_age'
p21
S''
sS'bmi'
p22
I-1
sS'z_score'
p23
S'-1'
p24
sS'other_findings'
p25
S''
sS'estimated_age'
p26
S''
sS'vaccinations'
p27
(lp28
sS'vitals'
p29
(lp30
sS'assessments'
p31
(lp32
sS'test_results'
p33
(lp34
sS'teacher'
p35
S''
sS'family_name'
p36
S''
sS'school'
p37
S''
sS'dob'
p38
S''
sS'gender'
p39
S''
sS'present_village'
p40
S''
sVupdate_demographics
p41
VUpdate Demographics
p42
sS'school_status'
p43
S''
sb.