(dp1
S'tribe'
p2
VHR4E
p3
sS'weight'
p4
F100
sVupdate_chief_complaint
p5
VUpdate CC
p6
sVupdate_nutrition
p7
VUpdate Nutrition
p8
sS'height'
p9
F100
sS'plans_of_care'
p10
(lp11
(dp12
S'Comment'
p13
Vasdf
p14
sS'Lab_Order'
p15
S'yes'
p16
sS'Sig'
p17
Vasdf
p18
sS'Order'
p19
VIvermectin 3 MG Oral Tablet
p20
sS'Action_Number'
p21
V12
p22
sasS'chief_complaint'
p23
VHello.
p24
sS'home_village'
p25
VSanta Cruz
p26
sS'id'
p27
S'2.16.840.1.113883.3.881.3774976330'
p28
sS'red_flags'
p29
ccopy_reg
_reconstructor
p30
(cdjango.http
QueryDict
p31
c__builtin__
dict
p32
(dp33
Vpallor
p34
(lp35
Vd
asVfever
p36
(lp37
Vd
asVmeasles
p38
(lp39
Vf
asVparasites
p40
(lp41
Vd
asVdehydration
p42
(lp43
Vf
asVear_problems
p44
(lp45
Vd
asVeye_problems
p46
(lp47
Vd
asVcough
p48
(lp49
Va
astRp50
(dp51
S'_encoding'
p52
S'utf-8'
p53
sS'_data'
p54
(dp55
g34
g35
sg36
g37
sg38
g39
sg40
g41
sg42
g43
sg44
g45
sg46
g47
sg48
g49
ssS'_mutable'
p56
I01
sbsVvitals_value
p57
V20P
p58
sS'languages'
p59
(lp60
VGuraginya
p61
aVAmharic
p62
aVEnglish-ET
p63
asS'school_year'
p64
V1
sS'given_name'
p65
VAlex
p66
sVcsrfmiddlewaretoken
p67
V5a67dbf30d32c32a709f7985b3f74731
p68
sS'supports'
p69
(lp70
sS'stated_age'
p71
V00
p72
sS'bmi'
p73
F100
sVvitals_circumstance
p74
Vasdf
p75
sS'z_score'
p76
S'Age out of range'
p77
sS'other_findings'
p78
Vasdf
p79
sVupdate_vitals
p80
VUpdate Vitals
p81
sS'estimated_age'
p82
V00
p83
sS'vaccinations'
p84
(lp85
(dp86
VBCG, OPV-O
p87
V1/2011
p88
sa(dp89
VDPT-2,OPV-2,HBV-2
p90
g88
sasS'vitals'
p91
(lp92
(dp93
S'Circumstance'
p94
g75
sS'Type'
p95
VP
sS'Value'
p96
g58
sS'Time'
p97
S'05:49'
p98
sasS'assessments'
p99
(lp100
(dp101
S'Date'
p102
S'10/2011'
p103
sS'Name'
p104
VFever
p105
sS'Description'
p106
Vasdf
p107
sa(dp108
S'Date'
p109
S'10/2011'
p110
sS'Name'
p111
Vasdf
p112
sS'Description'
p113
Vasdf
p114
sasS'test_results'
p115
(lp116
(dp117
g109
S'10/2011'
p118
sS'Hemoglobin'
p119
V13
p120
sS'Stool O&P Status'
p121
VAbnormal
p122
sS'Orasure'
p123
VPositive
p124
sS'Stool O&P Note'
p125
g122
sasS'teacher'
p126
VGabre,Johan
p127
sVupdate_other_findings
p128
VUpdate Other Findings
p129
sS'family_name'
p130
VGainer
p131
sS'school'
p132
VMedhane Alem
p133
sS'dob'
p134
S''
sS'gender'
p135
VMale
p136
sS'present_village'
p137
VSanta Cruz
p138
sVupdate_demographics
p139
VUpdate Demographics
p140
sS'school_status'
p141
VEnrolled
p142
s.