(dp1
S'body_tree'
p2
(lp3
sS'is_valid'
p4
I00
sS'namer'
p5
S'raaaa'
p6
sS'namespaces'
p7
(lp8
Vzxcccccc
p9
asS'date_created'
p10
cdatetime
datetime
p11
(S'\x07\xdc\x04\x06\x17\x1f\x08\x0ctS'
tRp12
sS'header_tree'
p13
(lp14
s.